; Function Attrs: nounwind uwtable
define range(i32 -1212, 1) i32 @rstrdate(ptr noundef %0, ptr noundef %1) local_unnamed_addr #0 {
  %3 = tail call ptr @__errno_location() #15
  store i32 0, ptr %3, align 4
  %4 = tail call i32 @PGTYPESdate_defmt_asc(ptr noundef %1, ptr noundef nonnull @.str, ptr noundef %0) #16
  %5 = icmp eq i32 %4, 0
  br i1 %5, label %rdefmtdate.exit, label %6

6:                                                ; preds = %2
  %7 = load i32, ptr %3, align 4
  %switch.tableidx = add i32 %7, -311
  %8 = icmp ult i32 %switch.tableidx, 5
  br i1 %8, label %switch.lookup, label %rdefmtdate.exit

switch.lookup:                                    ; preds = %6
  %9 = zext nneg i32 %switch.tableidx to i64
  %switch.gep = getelementptr inbounds nuw [5 x i32], ptr @switch.table.rdefmtdate, i64 0, i64 %9
  %switch.load = load i32, ptr %switch.gep, align 4
  br label %rdefmtdate.exit

rdefmtdate.exit:                                  ; preds = %6, %switch.lookup, %2
  %.0.i = phi i32 [ 0, %2 ], [ %switch.load, %switch.lookup ], [ -1204, %6 ]
  ret i32 %.0.i
}